; Function Attrs: mustprogress nofree norecurse nosync nounwind willreturn memory(read, inaccessiblemem: none) uwtable
define internal range(i32 -1, 2) i32 @cmp_list_len_asc(ptr noundef readonly captures(none) %0, ptr noundef readonly captures(none) %1) #5 {
  %3 = load ptr, ptr %0, align 8
  %.not.i = icmp eq ptr %3, null
  br i1 %.not.i, label %list_length.exit, label %4

4:                                                ; preds = %2
  %5 = getelementptr inbounds nuw i8, ptr %3, i64 4
  %6 = load i32, ptr %5, align 4
  br label %list_length.exit

list_length.exit:                                 ; preds = %2, %4
  %7 = phi i32 [ %6, %4 ], [ 0, %2 ]
  %8 = load ptr, ptr %1, align 8
  %.not.i3 = icmp eq ptr %8, null
  br i1 %.not.i3, label %list_length.exit4, label %9

9:                                                ; preds = %list_length.exit
  %10 = getelementptr inbounds nuw i8, ptr %8, i64 4
  %11 = load i32, ptr %10, align 4
  br label %list_length.exit4

list_length.exit4:                                ; preds = %list_length.exit, %9
  %12 = phi i32 [ %11, %9 ], [ 0, %list_length.exit ]
  %13 = tail call range(i32 -1, 2) i32 @llvm.scmp.i32.i32(i32 %7, i32 %12)
  ret i32 %13
}